target datalayout = "e-m:e-p270:32:32-p271:32:32-p272:64:64-i64:64-i128:128-f80:128-n8:16:32:64-S128"
target triple = "x86_64-pc-linux-gnu"

@zdp_parse_cinfo.cinfo = internal constant [7 x ptr] [ptr @hf_zbee_zdp_cinfo_alt_coord, ptr @hf_zbee_zdp_cinfo_ffd, ptr @hf_zbee_zdp_cinfo_power, ptr @hf_zbee_zdp_cinfo_idle_rx, ptr @hf_zbee_zdp_cinfo_security, ptr @hf_zbee_zdp_cinfo_alloc, ptr null], align 16
@hf_zbee_zdp_cinfo = internal global i32 0, align 4

; Function Attrs: nounwind uwtable
define hidden zeroext i8 @zdp_parse_cinfo(ptr noundef %0, i32 noundef %1, ptr noundef %2, ptr noundef %3) #0 {
  %5 = alloca ptr, align 8
  %6 = alloca i32, align 4
  %7 = alloca ptr, align 8
  %8 = alloca ptr, align 8
  %9 = alloca i8, align 1
  store ptr %0, ptr %5, align 8
  store i32 %1, ptr %6, align 4
  store ptr %2, ptr %7, align 8
  store ptr %3, ptr %8, align 8
  %10 = load ptr, ptr %5, align 8
  %11 = load ptr, ptr %7, align 8
  %12 = load ptr, ptr %8, align 8
  %13 = load i32, ptr %12, align 4
  %14 = load i32, ptr @hf_zbee_zdp_cinfo, align 4
  %15 = load i32, ptr %6, align 4
  %16 = call ptr @proto_tree_add_bitmask_with_flags(ptr noundef %10, ptr noundef %11, i32 noundef %13, i32 noundef %14, i32 noundef %15, ptr noundef @zdp_parse_cinfo.cinfo, i32 noundef 0, i32 noundef 1)
  %17 = load ptr, ptr %7, align 8
  %18 = load ptr, ptr %8, align 8
  %19 = load i32, ptr %18, align 4
  %20 = call zeroext i8 @tvb_get_guint8(ptr noundef %17, i32 noundef %19)
  store i8 %20, ptr %9, align 1
  %21 = load ptr, ptr %8, align 8
  %22 = load i32, ptr %21, align 4
  %23 = add i32 %22, 1
  store i32 %23, ptr %21, align 4
  %24 = load i8, ptr %9, align 1
  ret i8 %24
}