; Function Attrs: nounwind uwtable
define hidden zeroext i8 @zdp_parse_cinfo(ptr noundef %0, i32 noundef %1, ptr noundef %2, ptr noundef captures(none) %3) local_unnamed_addr #0 {
  %5 = load i32, ptr %3, align 4
  %6 = load i32, ptr @hf_zbee_zdp_cinfo, align 4
  %7 = tail call ptr @proto_tree_add_bitmask_with_flags(ptr noundef %0, ptr noundef %2, i32 noundef %5, i32 noundef %6, i32 noundef %1, ptr noundef nonnull @zdp_parse_cinfo.cinfo, i32 noundef 0, i32 noundef 1) #4
  %8 = load i32, ptr %3, align 4
  %9 = tail call zeroext i8 @tvb_get_guint8(ptr noundef %2, i32 noundef %8) #4
  %10 = load i32, ptr %3, align 4
  %11 = add i32 %10, 1
  store i32 %11, ptr %3, align 4
  ret i8 %9
}